target datalayout = "e-m:e-p270:32:32-p271:32:32-p272:64:64-i64:64-i128:128-f80:128-n8:16:32:64-S128"
target triple = "x86_64-pc-linux-gnu"

%"class.std::__1::vector" = type { ptr, ptr, %"class.std::__1::__compressed_pair" }
%"class.std::__1::__compressed_pair" = type { %"struct.std::__1::__compressed_pair_elem" }
%"struct.std::__1::__compressed_pair_elem" = type { ptr }
%"class.std::__1::basic_string" = type { %"class.std::__1::__compressed_pair.1" }
%"class.std::__1::__compressed_pair.1" = type { %"struct.std::__1::__compressed_pair_elem.2" }
%"struct.std::__1::__compressed_pair_elem.2" = type { %"struct.std::__1::basic_string<char>::__rep" }
%"struct.std::__1::basic_string<char>::__rep" = type { %union.anon }
%union.anon = type { %"struct.std::__1::basic_string<char>::__long" }
%"struct.std::__1::basic_string<char>::__long" = type { %struct.anon.3, i64, ptr }
%struct.anon.3 = type { i64 }
%"class.tev::Ipc::SocketConnection" = type { i32, %"class.std::__1::basic_string", %"class.std::__1::vector", i64 }

; Function Attrs: mustprogress uwtable
define internal noundef i32 @_ZN3tevL11closeSocketEi(i32 noundef %0) #4 {
  %2 = alloca i32, align 4
  store i32 %0, ptr %2, align 4
  %3 = load i32, ptr %2, align 4
  %4 = call i32 @close(i32 noundef %3)
  ret i32 %4
}

; Function Attrs: mustprogress nounwind uwtable
define dso_local noundef zeroext i1 @_ZNK3tev3Ipc16SocketConnection8isClosedEv(ptr noundef nonnull align 8 dereferenceable(64) %0) #1 align 2 {
  %2 = alloca ptr, align 8
  store ptr %0, ptr %2, align 8
  %3 = load ptr, ptr %2, align 8
  %4 = getelementptr inbounds %"class.tev::Ipc::SocketConnection", ptr %3, i32 0, i32 0
  %5 = load i32, ptr %4, align 8
  %6 = icmp eq i32 %5, -1
  ret i1 %6
}

; Function Attrs: mustprogress uwtable
define dso_local void @_ZN3tev3Ipc16SocketConnection5closeEv(ptr noundef nonnull align 8 dereferenceable(64) %0) #4 align 2 {
  %2 = alloca ptr, align 8
  store ptr %0, ptr %2, align 8
  %3 = load ptr, ptr %2, align 8
  %4 = call noundef zeroext i1 @_ZNK3tev3Ipc16SocketConnection8isClosedEv(ptr noundef nonnull align 8 dereferenceable(64) %3)
  br i1 %4, label %10, label %5

5:                                                ; preds = %1
  %6 = getelementptr inbounds %"class.tev::Ipc::SocketConnection", ptr %3, i32 0, i32 0
  %7 = load i32, ptr %6, align 8
  %8 = call noundef i32 @_ZN3tevL11closeSocketEi(i32 noundef %7)
  %9 = getelementptr inbounds %"class.tev::Ipc::SocketConnection", ptr %3, i32 0, i32 0
  store i32 -1, ptr %9, align 8
  br label %10

10:                                               ; preds = %5, %1
  ret void
}