; Function Attrs: mustprogress uwtable
define dso_local void @_ZN3tev3Ipc16SocketConnection5closeEv(ptr nocapture noundef nonnull align 8 dereferenceable(64) %0) local_unnamed_addr #3 align 2 {
  %2 = load i32, ptr %0, align 8
  %3 = icmp eq i32 %2, -1
  br i1 %3, label %6, label %4

4:                                                ; preds = %1
  %5 = tail call noundef i32 @close(i32 noundef %2)
  store i32 -1, ptr %0, align 8
  br label %6

6:                                                ; preds = %4, %1
  ret void
}